; Function Attrs: nounwind uwtable
define internal { i64, ptr } @f_asin(ptr readnone captures(none) %0, i64 %1, ptr %2) #0 {
  %4 = alloca [15 x i8], align 1
  %5 = tail call i32 @jv_get_kind(i64 %1, ptr %2) #14
  %.not = icmp eq i32 %5, 4
  br i1 %.not, label %14, label %6

6:                                                ; preds = %3
  call void @llvm.lifetime.start.p0(i64 15, ptr nonnull %4) #14
  %7 = tail call i32 @jv_get_kind(i64 %1, ptr %2) #14
  %8 = tail call ptr @jv_kind_name(i32 noundef %7) #14
  %9 = call ptr @jv_dump_string_trunc(i64 %1, ptr %2, ptr noundef nonnull %4, i64 noundef 15) #14
  %10 = call { i64, ptr } (ptr, ...) @jv_string_fmt(ptr noundef nonnull @.str.155, ptr noundef %8, ptr noundef %9, ptr noundef nonnull @.str.154) #14
  %11 = extractvalue { i64, ptr } %10, 0
  %12 = extractvalue { i64, ptr } %10, 1
  %13 = call { i64, ptr } @jv_invalid_with_msg(i64 %11, ptr %12) #14
  call void @llvm.lifetime.end.p0(i64 15, ptr nonnull %4) #14
  br label %18

14:                                               ; preds = %3
  %15 = tail call double @jv_number_value(i64 %1, ptr %2) #14
  %16 = tail call double @asin(double noundef %15) #14, !tbaa !19
  %17 = tail call { i64, ptr } @jv_number(double noundef %16) #14
  tail call void @jv_free(i64 %1, ptr %2) #14
  br label %18

18:                                               ; preds = %14, %6
  %.pn = phi { i64, ptr } [ %13, %6 ], [ %17, %14 ]
  ret { i64, ptr } %.pn
}